target datalayout = "e-m:e-p270:32:32-p271:32:32-p272:64:64-i64:64-i128:128-f80:128-n8:16:32:64-S128"
target triple = "x86_64-pc-linux-gnu"

%struct.GISTSTATE = type { ptr, ptr, ptr, ptr, ptr, [32 x %struct.FmgrInfo], [32 x %struct.FmgrInfo], [32 x %struct.FmgrInfo], [32 x %struct.FmgrInfo], [32 x %struct.FmgrInfo], [32 x %struct.FmgrInfo], [32 x %struct.FmgrInfo], [32 x %struct.FmgrInfo], [32 x %struct.FmgrInfo], [32 x i32] }
%struct.FmgrInfo = type { ptr, i32, i16, i8, i8, i8, ptr, ptr, ptr }
%struct.IndexTupleData = type { %struct.ItemPointerData, i16 }
%struct.ItemPointerData = type { %struct.BlockIdData, i16 }
%struct.BlockIdData = type { i16, i16 }
%struct.RelationData = type { %struct.RelFileLocator, ptr, i32, i32, i8, i8, i8, i8, i8, i32, i32, i32, i32, ptr, ptr, i32, %struct.LockInfoData, ptr, ptr, ptr, ptr, ptr, i8, ptr, ptr, ptr, ptr, ptr, ptr, i32, ptr, i8, ptr, ptr, i32, i8, i32, ptr, i8, ptr, ptr, ptr, ptr, ptr, ptr, ptr, i32, ptr, ptr, ptr, ptr, ptr, ptr, ptr, ptr, ptr, ptr, ptr, ptr, ptr, ptr, ptr, ptr, ptr, ptr, ptr, i32, i8, ptr }
%struct.RelFileLocator = type { i32, i32, i32 }
%struct.LockInfoData = type { %struct.LockRelId }
%struct.LockRelId = type { i32, i32 }
%struct.TupleDescData = type { i32, i32, i32, i32, ptr, [0 x %struct.CompactAttribute] }
%struct.CompactAttribute = type { i32, i16, i8, i8, i8, i8, i8, i8, i8 }
%struct.FormData_pg_class = type { i32, %struct.nameData, i32, i32, i32, i32, i32, i32, i32, i32, float, i32, i32, i8, i8, i8, i8, i16, i16, i8, i8, i8, i8, i8, i8, i8, i8, i32, i32, i32 }
%struct.nameData = type { [64 x i8] }
%struct.SplitPageLayout = type { %struct.gistxlogPage, ptr, i32, ptr, ptr, i32, ptr }
%struct.gistxlogPage = type { i32, i32 }
%struct.GistSplitVector = type { %struct.GIST_SPLITVEC, [32 x i64], [32 x i8], [32 x i64], [32 x i8], ptr }
%struct.GIST_SPLITVEC = type { ptr, i32, i64, i8, ptr, i32, i64, i8 }

@.str.2 = private unnamed_addr constant [7 x i8] c"gist.c\00", align 1
@.str.8 = private unnamed_addr constant [54 x i8] c"index row size %zu exceeds maximum %zu for index \22%s\22\00", align 1
@__func__.gistSplit = private unnamed_addr constant [10 x i8] c"gistSplit\00", align 1

; Function Attrs: inlinehint nounwind uwtable
define internal i64 @IndexTupleSize(ptr noundef %0) #2 {
  %2 = alloca ptr, align 8
  store ptr %0, ptr %2, align 8
  %3 = load ptr, ptr %2, align 8
  %4 = getelementptr inbounds nuw %struct.IndexTupleData, ptr %3, i32 0, i32 1
  %5 = load i16, ptr %4, align 2
  %6 = zext i16 %5 to i32
  %7 = and i32 %6, 8191
  %8 = sext i32 %7 to i64
  ret i64 %8
}

; Function Attrs: nounwind uwtable
define dso_local ptr @gistSplit(ptr noundef %0, ptr noundef %1, ptr noundef %2, i32 noundef %3, ptr noundef %4) #0 {
  %6 = alloca ptr, align 8
  %7 = alloca ptr, align 8
  %8 = alloca ptr, align 8
  %9 = alloca i32, align 4
  %10 = alloca ptr, align 8
  %11 = alloca ptr, align 8
  %12 = alloca ptr, align 8
  %13 = alloca %struct.GistSplitVector, align 8
  %14 = alloca i32, align 4
  %15 = alloca ptr, align 8
  %16 = alloca ptr, align 8
  %17 = alloca ptr, align 8
  %18 = alloca ptr, align 8
  %19 = alloca ptr, align 8
  store ptr %0, ptr %6, align 8
  store ptr %1, ptr %7, align 8
  store ptr %2, ptr %8, align 8
  store i32 %3, ptr %9, align 4
  store ptr %4, ptr %10, align 8
  call void @llvm.lifetime.start.p0(i64 8, ptr %11) #7
  call void @llvm.lifetime.start.p0(i64 8, ptr %12) #7
  call void @llvm.lifetime.start.p0(i64 648, ptr %13) #7
  call void @llvm.lifetime.start.p0(i64 4, ptr %14) #7
  call void @llvm.lifetime.start.p0(i64 8, ptr %15) #7
  store ptr null, ptr %15, align 8
  call void @check_stack_depth()
  %20 = load i32, ptr %9, align 4
  %21 = icmp eq i32 %20, 1
  br i1 %21, label %22, label %44

22:                                               ; preds = %5
  br label %23

23:                                               ; preds = %22
  br i1 true, label %24, label %26

24:                                               ; preds = %23
  %25 = call zeroext i1 @errstart_cold(i32 noundef 21, ptr noundef null) #8
  br i1 %25, label %28, label %41

26:                                               ; preds = %23
  %27 = call zeroext i1 @errstart(i32 noundef 21, ptr noundef null)
  br i1 %27, label %28, label %41

28:                                               ; preds = %26, %24
  %29 = call i32 @errcode(i32 noundef 261)
  %30 = load ptr, ptr %8, align 8
  %31 = getelementptr inbounds ptr, ptr %30, i64 0
  %32 = load ptr, ptr %31, align 8
  %33 = call i64 @IndexTupleSize(ptr noundef %32)
  %34 = load ptr, ptr %6, align 8
  %35 = getelementptr inbounds nuw %struct.RelationData, ptr %34, i32 0, i32 13
  %36 = load ptr, ptr %35, align 8
  %37 = getelementptr inbounds nuw %struct.FormData_pg_class, ptr %36, i32 0, i32 1
  %38 = getelementptr inbounds nuw %struct.nameData, ptr %37, i32 0, i32 0
  %39 = getelementptr inbounds [64 x i8], ptr %38, i64 0, i64 0
  %40 = call i32 (ptr, ...) @errmsg(ptr noundef @.str.8, i64 noundef %33, i64 noundef 8152, ptr noundef %39)
  call void @errfinish(ptr noundef @.str.2, i32 noundef 1467, ptr noundef @__func__.gistSplit)
  br label %41

41:                                               ; preds = %28, %26, %24
  unreachable

42:                                               ; No predecessors!
  br label %43

43:                                               ; preds = %42
  br label %44

44:                                               ; preds = %43, %5
  %45 = getelementptr inbounds nuw %struct.GistSplitVector, ptr %13, i32 0, i32 2
  %46 = getelementptr inbounds [32 x i8], ptr %45, i64 0, i64 0
  %47 = load ptr, ptr %10, align 8
  %48 = getelementptr inbounds nuw %struct.GISTSTATE, ptr %47, i32 0, i32 3
  %49 = load ptr, ptr %48, align 8
  %50 = getelementptr inbounds nuw %struct.TupleDescData, ptr %49, i32 0, i32 0
  %51 = load i32, ptr %50, align 8
  %52 = sext i32 %51 to i64
  %53 = mul i64 1, %52
  call void @llvm.memset.p0.i64(ptr align 8 %46, i8 1, i64 %53, i1 false)
  %54 = getelementptr inbounds nuw %struct.GistSplitVector, ptr %13, i32 0, i32 4
  %55 = getelementptr inbounds [32 x i8], ptr %54, i64 0, i64 0
  %56 = load ptr, ptr %10, align 8
  %57 = getelementptr inbounds nuw %struct.GISTSTATE, ptr %56, i32 0, i32 3
  %58 = load ptr, ptr %57, align 8
  %59 = getelementptr inbounds nuw %struct.TupleDescData, ptr %58, i32 0, i32 0
  %60 = load i32, ptr %59, align 8
  %61 = sext i32 %60 to i64
  %62 = mul i64 1, %61
  call void @llvm.memset.p0.i64(ptr align 8 %55, i8 1, i64 %62, i1 false)
  %63 = load ptr, ptr %6, align 8
  %64 = load ptr, ptr %7, align 8
  %65 = load ptr, ptr %8, align 8
  %66 = load i32, ptr %9, align 4
  %67 = load ptr, ptr %10, align 8
  call void @gistSplitByKey(ptr noundef %63, ptr noundef %64, ptr noundef %65, i32 noundef %66, ptr noundef %67, ptr noundef %13, i32 noundef 0)
  %68 = load i32, ptr %9, align 4
  %69 = add i32 %68, 1
  %70 = sext i32 %69 to i64
  %71 = mul i64 8, %70
  %72 = call ptr @palloc(i64 noundef %71)
  store ptr %72, ptr %11, align 8
  %73 = load i32, ptr %9, align 4
  %74 = add i32 %73, 1
  %75 = sext i32 %74 to i64
  %76 = mul i64 8, %75
  %77 = call ptr @palloc(i64 noundef %76)
  store ptr %77, ptr %12, align 8
  store i32 0, ptr %14, align 4
  br label %78

78:                                               ; preds = %102, %44
  %79 = load i32, ptr %14, align 4
  %80 = getelementptr inbounds nuw %struct.GistSplitVector, ptr %13, i32 0, i32 0
  %81 = getelementptr inbounds nuw %struct.GIST_SPLITVEC, ptr %80, i32 0, i32 1
  %82 = load i32, ptr %81, align 8
  %83 = icmp slt i32 %79, %82
  br i1 %83, label %84, label %105

84:                                               ; preds = %78
  %85 = load ptr, ptr %8, align 8
  %86 = getelementptr inbounds nuw %struct.GistSplitVector, ptr %13, i32 0, i32 0
  %87 = getelementptr inbounds nuw %struct.GIST_SPLITVEC, ptr %86, i32 0, i32 0
  %88 = load ptr, ptr %87, align 8
  %89 = load i32, ptr %14, align 4
  %90 = sext i32 %89 to i64
  %91 = getelementptr inbounds i16, ptr %88, i64 %90
  %92 = load i16, ptr %91, align 2
  %93 = zext i16 %92 to i32
  %94 = sub i32 %93, 1
  %95 = sext i32 %94 to i64
  %96 = getelementptr inbounds ptr, ptr %85, i64 %95
  %97 = load ptr, ptr %96, align 8
  %98 = load ptr, ptr %11, align 8
  %99 = load i32, ptr %14, align 4
  %100 = sext i32 %99 to i64
  %101 = getelementptr inbounds ptr, ptr %98, i64 %100
  store ptr %97, ptr %101, align 8
  br label %102

102:                                              ; preds = %84
  %103 = load i32, ptr %14, align 4
  %104 = add i32 %103, 1
  store i32 %104, ptr %14, align 4
  br label %78, !llvm.loop !23

105:                                              ; preds = %78
  store i32 0, ptr %14, align 4
  br label %106

106:                                              ; preds = %130, %105
  %107 = load i32, ptr %14, align 4
  %108 = getelementptr inbounds nuw %struct.GistSplitVector, ptr %13, i32 0, i32 0
  %109 = getelementptr inbounds nuw %struct.GIST_SPLITVEC, ptr %108, i32 0, i32 5
  %110 = load i32, ptr %109, align 8
  %111 = icmp slt i32 %107, %110
  br i1 %111, label %112, label %133

112:                                              ; preds = %106
  %113 = load ptr, ptr %8, align 8
  %114 = getelementptr inbounds nuw %struct.GistSplitVector, ptr %13, i32 0, i32 0
  %115 = getelementptr inbounds nuw %struct.GIST_SPLITVEC, ptr %114, i32 0, i32 4
  %116 = load ptr, ptr %115, align 8
  %117 = load i32, ptr %14, align 4
  %118 = sext i32 %117 to i64
  %119 = getelementptr inbounds i16, ptr %116, i64 %118
  %120 = load i16, ptr %119, align 2
  %121 = zext i16 %120 to i32
  %122 = sub i32 %121, 1
  %123 = sext i32 %122 to i64
  %124 = getelementptr inbounds ptr, ptr %113, i64 %123
  %125 = load ptr, ptr %124, align 8
  %126 = load ptr, ptr %12, align 8
  %127 = load i32, ptr %14, align 4
  %128 = sext i32 %127 to i64
  %129 = getelementptr inbounds ptr, ptr %126, i64 %128
  store ptr %125, ptr %129, align 8
  br label %130

130:                                              ; preds = %112
  %131 = load i32, ptr %14, align 4
  %132 = add i32 %131, 1
  store i32 %132, ptr %14, align 4
  br label %106, !llvm.loop !24

133:                                              ; preds = %106
  %134 = load ptr, ptr %12, align 8
  %135 = getelementptr inbounds nuw %struct.GistSplitVector, ptr %13, i32 0, i32 0
  %136 = getelementptr inbounds nuw %struct.GIST_SPLITVEC, ptr %135, i32 0, i32 5
  %137 = load i32, ptr %136, align 8
  %138 = call zeroext i1 @gistfitpage(ptr noundef %134, i32 noundef %137)
  br i1 %138, label %148, label %139

139:                                              ; preds = %133
  %140 = load ptr, ptr %6, align 8
  %141 = load ptr, ptr %7, align 8
  %142 = load ptr, ptr %12, align 8
  %143 = getelementptr inbounds nuw %struct.GistSplitVector, ptr %13, i32 0, i32 0
  %144 = getelementptr inbounds nuw %struct.GIST_SPLITVEC, ptr %143, i32 0, i32 5
  %145 = load i32, ptr %144, align 8
  %146 = load ptr, ptr %10, align 8
  %147 = call ptr @gistSplit(ptr noundef %140, ptr noundef %141, ptr noundef %142, i32 noundef %145, ptr noundef %146)
  store ptr %147, ptr %15, align 8
  br label %186

148:                                              ; preds = %133
  br label %149

149:                                              ; preds = %148
  call void @llvm.lifetime.start.p0(i64 8, ptr %16) #7
  %150 = call ptr @palloc0(i64 noundef 56)
  store ptr %150, ptr %16, align 8
  %151 = load ptr, ptr %16, align 8
  %152 = getelementptr inbounds nuw %struct.SplitPageLayout, ptr %151, i32 0, i32 0
  %153 = getelementptr inbounds nuw %struct.gistxlogPage, ptr %152, i32 0, i32 0
  store i32 -1, ptr %153, align 8
  %154 = load ptr, ptr %16, align 8
  %155 = getelementptr inbounds nuw %struct.SplitPageLayout, ptr %154, i32 0, i32 5
  store i32 0, ptr %155, align 8
  %156 = load ptr, ptr %15, align 8
  %157 = load ptr, ptr %16, align 8
  %158 = getelementptr inbounds nuw %struct.SplitPageLayout, ptr %157, i32 0, i32 6
  store ptr %156, ptr %158, align 8
  %159 = load ptr, ptr %16, align 8
  store ptr %159, ptr %15, align 8
  call void @llvm.lifetime.end.p0(i64 8, ptr %16) #7
  br label %160

160:                                              ; preds = %149
  br label %161

161:                                              ; preds = %160
  %162 = getelementptr inbounds nuw %struct.GistSplitVector, ptr %13, i32 0, i32 0
  %163 = getelementptr inbounds nuw %struct.GIST_SPLITVEC, ptr %162, i32 0, i32 5
  %164 = load i32, ptr %163, align 8
  %165 = load ptr, ptr %15, align 8
  %166 = getelementptr inbounds nuw %struct.SplitPageLayout, ptr %165, i32 0, i32 0
  %167 = getelementptr inbounds nuw %struct.gistxlogPage, ptr %166, i32 0, i32 1
  store i32 %164, ptr %167, align 4
  %168 = load ptr, ptr %12, align 8
  %169 = getelementptr inbounds nuw %struct.GistSplitVector, ptr %13, i32 0, i32 0
  %170 = getelementptr inbounds nuw %struct.GIST_SPLITVEC, ptr %169, i32 0, i32 5
  %171 = load i32, ptr %170, align 8
  %172 = load ptr, ptr %15, align 8
  %173 = getelementptr inbounds nuw %struct.SplitPageLayout, ptr %172, i32 0, i32 2
  %174 = call ptr @gistfillitupvec(ptr noundef %168, i32 noundef %171, ptr noundef %173)
  %175 = load ptr, ptr %15, align 8
  %176 = getelementptr inbounds nuw %struct.SplitPageLayout, ptr %175, i32 0, i32 1
  store ptr %174, ptr %176, align 8
  %177 = load ptr, ptr %10, align 8
  %178 = load ptr, ptr %6, align 8
  %179 = getelementptr inbounds nuw %struct.GistSplitVector, ptr %13, i32 0, i32 3
  %180 = getelementptr inbounds [32 x i64], ptr %179, i64 0, i64 0
  %181 = getelementptr inbounds nuw %struct.GistSplitVector, ptr %13, i32 0, i32 4
  %182 = getelementptr inbounds [32 x i8], ptr %181, i64 0, i64 0
  %183 = call ptr @gistFormTuple(ptr noundef %177, ptr noundef %178, ptr noundef %180, ptr noundef %182, i1 noundef zeroext false)
  %184 = load ptr, ptr %15, align 8
  %185 = getelementptr inbounds nuw %struct.SplitPageLayout, ptr %184, i32 0, i32 3
  store ptr %183, ptr %185, align 8
  br label %186

186:                                              ; preds = %161, %139
  %187 = load ptr, ptr %11, align 8
  %188 = getelementptr inbounds nuw %struct.GistSplitVector, ptr %13, i32 0, i32 0
  %189 = getelementptr inbounds nuw %struct.GIST_SPLITVEC, ptr %188, i32 0, i32 1
  %190 = load i32, ptr %189, align 8
  %191 = call zeroext i1 @gistfitpage(ptr noundef %187, i32 noundef %190)
  br i1 %191, label %215, label %192

192:                                              ; preds = %186
  call void @llvm.lifetime.start.p0(i64 8, ptr %17) #7
  call void @llvm.lifetime.start.p0(i64 8, ptr %18) #7
  %193 = load ptr, ptr %6, align 8
  %194 = load ptr, ptr %7, align 8
  %195 = load ptr, ptr %11, align 8
  %196 = getelementptr inbounds nuw %struct.GistSplitVector, ptr %13, i32 0, i32 0
  %197 = getelementptr inbounds nuw %struct.GIST_SPLITVEC, ptr %196, i32 0, i32 1
  %198 = load i32, ptr %197, align 8
  %199 = load ptr, ptr %10, align 8
  %200 = call ptr @gistSplit(ptr noundef %193, ptr noundef %194, ptr noundef %195, i32 noundef %198, ptr noundef %199)
  store ptr %200, ptr %18, align 8
  store ptr %200, ptr %17, align 8
  br label %201

201:                                              ; preds = %206, %192
  %202 = load ptr, ptr %17, align 8
  %203 = getelementptr inbounds nuw %struct.SplitPageLayout, ptr %202, i32 0, i32 6
  %204 = load ptr, ptr %203, align 8
  %205 = icmp ne ptr %204, null
  br i1 %205, label %206, label %210

206:                                              ; preds = %201
  %207 = load ptr, ptr %17, align 8
  %208 = getelementptr inbounds nuw %struct.SplitPageLayout, ptr %207, i32 0, i32 6
  %209 = load ptr, ptr %208, align 8
  store ptr %209, ptr %17, align 8
  br label %201, !llvm.loop !25

210:                                              ; preds = %201
  %211 = load ptr, ptr %15, align 8
  %212 = load ptr, ptr %17, align 8
  %213 = getelementptr inbounds nuw %struct.SplitPageLayout, ptr %212, i32 0, i32 6
  store ptr %211, ptr %213, align 8
  %214 = load ptr, ptr %18, align 8
  store ptr %214, ptr %15, align 8
  call void @llvm.lifetime.end.p0(i64 8, ptr %18) #7
  call void @llvm.lifetime.end.p0(i64 8, ptr %17) #7
  br label %253

215:                                              ; preds = %186
  br label %216

216:                                              ; preds = %215
  call void @llvm.lifetime.start.p0(i64 8, ptr %19) #7
  %217 = call ptr @palloc0(i64 noundef 56)
  store ptr %217, ptr %19, align 8
  %218 = load ptr, ptr %19, align 8
  %219 = getelementptr inbounds nuw %struct.SplitPageLayout, ptr %218, i32 0, i32 0
  %220 = getelementptr inbounds nuw %struct.gistxlogPage, ptr %219, i32 0, i32 0
  store i32 -1, ptr %220, align 8
  %221 = load ptr, ptr %19, align 8
  %222 = getelementptr inbounds nuw %struct.SplitPageLayout, ptr %221, i32 0, i32 5
  store i32 0, ptr %222, align 8
  %223 = load ptr, ptr %15, align 8
  %224 = load ptr, ptr %19, align 8
  %225 = getelementptr inbounds nuw %struct.SplitPageLayout, ptr %224, i32 0, i32 6
  store ptr %223, ptr %225, align 8
  %226 = load ptr, ptr %19, align 8
  store ptr %226, ptr %15, align 8
  call void @llvm.lifetime.end.p0(i64 8, ptr %19) #7
  br label %227

227:                                              ; preds = %216
  br label %228

228:                                              ; preds = %227
  %229 = getelementptr inbounds nuw %struct.GistSplitVector, ptr %13, i32 0, i32 0
  %230 = getelementptr inbounds nuw %struct.GIST_SPLITVEC, ptr %229, i32 0, i32 1
  %231 = load i32, ptr %230, align 8
  %232 = load ptr, ptr %15, align 8
  %233 = getelementptr inbounds nuw %struct.SplitPageLayout, ptr %232, i32 0, i32 0
  %234 = getelementptr inbounds nuw %struct.gistxlogPage, ptr %233, i32 0, i32 1
  store i32 %231, ptr %234, align 4
  %235 = load ptr, ptr %11, align 8
  %236 = getelementptr inbounds nuw %struct.GistSplitVector, ptr %13, i32 0, i32 0
  %237 = getelementptr inbounds nuw %struct.GIST_SPLITVEC, ptr %236, i32 0, i32 1
  %238 = load i32, ptr %237, align 8
  %239 = load ptr, ptr %15, align 8
  %240 = getelementptr inbounds nuw %struct.SplitPageLayout, ptr %239, i32 0, i32 2
  %241 = call ptr @gistfillitupvec(ptr noundef %235, i32 noundef %238, ptr noundef %240)
  %242 = load ptr, ptr %15, align 8
  %243 = getelementptr inbounds nuw %struct.SplitPageLayout, ptr %242, i32 0, i32 1
  store ptr %241, ptr %243, align 8
  %244 = load ptr, ptr %10, align 8
  %245 = load ptr, ptr %6, align 8
  %246 = getelementptr inbounds nuw %struct.GistSplitVector, ptr %13, i32 0, i32 1
  %247 = getelementptr inbounds [32 x i64], ptr %246, i64 0, i64 0
  %248 = getelementptr inbounds nuw %struct.GistSplitVector, ptr %13, i32 0, i32 2
  %249 = getelementptr inbounds [32 x i8], ptr %248, i64 0, i64 0
  %250 = call ptr @gistFormTuple(ptr noundef %244, ptr noundef %245, ptr noundef %247, ptr noundef %249, i1 noundef zeroext false)
  %251 = load ptr, ptr %15, align 8
  %252 = getelementptr inbounds nuw %struct.SplitPageLayout, ptr %251, i32 0, i32 3
  store ptr %250, ptr %252, align 8
  br label %253

253:                                              ; preds = %228, %210
  %254 = load ptr, ptr %15, align 8
  call void @llvm.lifetime.end.p0(i64 8, ptr %15) #7
  call void @llvm.lifetime.end.p0(i64 4, ptr %14) #7
  call void @llvm.lifetime.end.p0(i64 648, ptr %13) #7
  call void @llvm.lifetime.end.p0(i64 8, ptr %12) #7
  call void @llvm.lifetime.end.p0(i64 8, ptr %11) #7
  ret ptr %254
}