; Function Attrs: nounwind uwtable
define dso_local ptr @gistSplit(ptr noundef %0, ptr noundef %1, ptr noundef %2, i32 noundef %3, ptr noundef %4) local_unnamed_addr #0 {
  %6 = alloca %struct.GistSplitVector, align 8
  call void @llvm.lifetime.start.p0(i64 648, ptr nonnull %6) #8
  tail call void @check_stack_depth() #8
  %7 = icmp eq i32 %3, 1
  br i1 %7, label %8, label %19

8:                                                ; preds = %5
  %9 = tail call zeroext i1 @errstart_cold(i32 noundef 21, ptr noundef null) #9
  tail call void @llvm.assume(i1 %9)
  %10 = tail call i32 @errcode(i32 noundef 261) #8
  %11 = load ptr, ptr %2, align 8
  %12 = getelementptr i8, ptr %11, i64 6
  %.val = load i16, ptr %12, align 2
  %13 = and i16 %.val, 8191
  %14 = zext nneg i16 %13 to i64
  %15 = getelementptr inbounds nuw i8, ptr %0, i64 56
  %16 = load ptr, ptr %15, align 8
  %17 = getelementptr inbounds nuw i8, ptr %16, i64 4
  %18 = tail call i32 (ptr, ...) @errmsg(ptr noundef nonnull @.str.8, i64 noundef %14, i64 noundef 8152, ptr noundef nonnull %17) #8
  tail call void @errfinish(ptr noundef nonnull @.str.2, i32 noundef 1467, ptr noundef nonnull @__func__.gistSplit) #8
  unreachable

19:                                               ; preds = %5
  %20 = getelementptr inbounds nuw i8, ptr %6, i64 320
  %21 = getelementptr inbounds nuw i8, ptr %4, i64 24
  %22 = load ptr, ptr %21, align 8
  %23 = load i32, ptr %22, align 8
  %24 = sext i32 %23 to i64
  call void @llvm.memset.p0.i64(ptr nonnull align 8 %20, i8 1, i64 %24, i1 false)
  %25 = getelementptr inbounds nuw i8, ptr %6, i64 608
  call void @llvm.memset.p0.i64(ptr nonnull align 8 %25, i8 1, i64 %24, i1 false)
  call void @gistSplitByKey(ptr noundef %0, ptr noundef %1, ptr noundef %2, i32 noundef %3, ptr noundef %4, ptr noundef nonnull %6, i32 noundef 0) #8
  %26 = add i32 %3, 1
  %27 = sext i32 %26 to i64
  %28 = shl nsw i64 %27, 3
  %29 = call ptr @palloc(i64 noundef %28) #8
  %30 = call ptr @palloc(i64 noundef %28) #8
  %31 = getelementptr inbounds nuw i8, ptr %6, i64 8
  %invariant.gep = getelementptr i8, ptr %2, i64 -8
  %32 = load i32, ptr %31, align 8
  %33 = icmp sgt i32 %32, 0
  br i1 %33, label %.lr.ph, label %.preheader

.preheader:                                       ; preds = %.lr.ph, %19
  %34 = getelementptr inbounds nuw i8, ptr %6, i64 40
  %35 = load i32, ptr %34, align 8
  %36 = icmp sgt i32 %35, 0
  br i1 %36, label %.lr.ph76, label %._crit_edge

.lr.ph76:                                         ; preds = %.preheader
  %37 = getelementptr inbounds nuw i8, ptr %6, i64 32
  br label %47

.lr.ph:                                           ; preds = %19, %.lr.ph
  %indvars.iv = phi i64 [ %indvars.iv.next, %.lr.ph ], [ 0, %19 ]
  %38 = load ptr, ptr %6, align 8
  %39 = getelementptr inbounds nuw i16, ptr %38, i64 %indvars.iv
  %40 = load i16, ptr %39, align 2
  %41 = zext i16 %40 to i64
  %gep = getelementptr ptr, ptr %invariant.gep, i64 %41
  %42 = load ptr, ptr %gep, align 8
  %43 = getelementptr inbounds nuw ptr, ptr %29, i64 %indvars.iv
  store ptr %42, ptr %43, align 8
  %indvars.iv.next = add nuw nsw i64 %indvars.iv, 1
  %44 = load i32, ptr %31, align 8
  %45 = sext i32 %44 to i64
  %46 = icmp slt i64 %indvars.iv.next, %45
  br i1 %46, label %.lr.ph, label %.preheader, !llvm.loop !25

47:                                               ; preds = %.lr.ph76, %47
  %indvars.iv78 = phi i64 [ 0, %.lr.ph76 ], [ %indvars.iv.next79, %47 ]
  %48 = load ptr, ptr %37, align 8
  %49 = getelementptr inbounds nuw i16, ptr %48, i64 %indvars.iv78
  %50 = load i16, ptr %49, align 2
  %51 = zext i16 %50 to i64
  %gep74 = getelementptr ptr, ptr %invariant.gep, i64 %51
  %52 = load ptr, ptr %gep74, align 8
  %53 = getelementptr inbounds nuw ptr, ptr %30, i64 %indvars.iv78
  store ptr %52, ptr %53, align 8
  %indvars.iv.next79 = add nuw nsw i64 %indvars.iv78, 1
  %54 = load i32, ptr %34, align 8
  %55 = sext i32 %54 to i64
  %56 = icmp slt i64 %indvars.iv.next79, %55
  br i1 %56, label %47, label %._crit_edge, !llvm.loop !26

._crit_edge:                                      ; preds = %47, %.preheader
  %.lcssa69 = phi i32 [ %35, %.preheader ], [ %54, %47 ]
  %57 = call zeroext i1 @gistfitpage(ptr noundef %30, i32 noundef %.lcssa69) #8
  br i1 %57, label %61, label %58

58:                                               ; preds = %._crit_edge
  %59 = load i32, ptr %34, align 8
  %60 = call ptr @gistSplit(ptr noundef %0, ptr noundef %1, ptr noundef %30, i32 noundef %59, ptr noundef %4)
  br label %73

61:                                               ; preds = %._crit_edge
  %62 = call ptr @palloc0(i64 noundef 56) #8
  store i32 -1, ptr %62, align 8
  %63 = getelementptr inbounds nuw i8, ptr %62, i64 40
  store i32 0, ptr %63, align 8
  %64 = getelementptr inbounds nuw i8, ptr %62, i64 48
  store ptr null, ptr %64, align 8
  %65 = load i32, ptr %34, align 8
  %66 = getelementptr inbounds nuw i8, ptr %62, i64 4
  store i32 %65, ptr %66, align 4
  %67 = getelementptr inbounds nuw i8, ptr %62, i64 16
  %68 = call ptr @gistfillitupvec(ptr noundef %30, i32 noundef %65, ptr noundef nonnull %67) #8
  %69 = getelementptr inbounds nuw i8, ptr %62, i64 8
  store ptr %68, ptr %69, align 8
  %70 = getelementptr inbounds nuw i8, ptr %6, i64 352
  %71 = call ptr @gistFormTuple(ptr noundef %4, ptr noundef %0, ptr noundef nonnull %70, ptr noundef nonnull %25, i1 noundef zeroext false) #8
  %72 = getelementptr inbounds nuw i8, ptr %62, i64 24
  store ptr %71, ptr %72, align 8
  br label %73

73:                                               ; preds = %61, %58
  %.063 = phi ptr [ %62, %61 ], [ %60, %58 ]
  %74 = load i32, ptr %31, align 8
  %75 = call zeroext i1 @gistfitpage(ptr noundef %29, i32 noundef %74) #8
  br i1 %75, label %84, label %76

76:                                               ; preds = %73
  %77 = load i32, ptr %31, align 8
  %78 = call ptr @gistSplit(ptr noundef %0, ptr noundef %1, ptr noundef %29, i32 noundef %77, ptr noundef %4)
  br label %79

79:                                               ; preds = %79, %76
  %.065 = phi ptr [ %78, %76 ], [ %81, %79 ]
  %80 = getelementptr inbounds nuw i8, ptr %.065, i64 48
  %81 = load ptr, ptr %80, align 8
  %.not = icmp eq ptr %81, null
  br i1 %.not, label %82, label %79, !llvm.loop !27

82:                                               ; preds = %79
  %83 = getelementptr inbounds nuw i8, ptr %.065, i64 48
  store ptr %.063, ptr %83, align 8
  br label %96

84:                                               ; preds = %73
  %85 = call ptr @palloc0(i64 noundef 56) #8
  store i32 -1, ptr %85, align 8
  %86 = getelementptr inbounds nuw i8, ptr %85, i64 40
  store i32 0, ptr %86, align 8
  %87 = getelementptr inbounds nuw i8, ptr %85, i64 48
  store ptr %.063, ptr %87, align 8
  %88 = load i32, ptr %31, align 8
  %89 = getelementptr inbounds nuw i8, ptr %85, i64 4
  store i32 %88, ptr %89, align 4
  %90 = getelementptr inbounds nuw i8, ptr %85, i64 16
  %91 = call ptr @gistfillitupvec(ptr noundef %29, i32 noundef %88, ptr noundef nonnull %90) #8
  %92 = getelementptr inbounds nuw i8, ptr %85, i64 8
  store ptr %91, ptr %92, align 8
  %93 = getelementptr inbounds nuw i8, ptr %6, i64 64
  %94 = call ptr @gistFormTuple(ptr noundef %4, ptr noundef %0, ptr noundef nonnull %93, ptr noundef nonnull %20, i1 noundef zeroext false) #8
  %95 = getelementptr inbounds nuw i8, ptr %85, i64 24
  store ptr %94, ptr %95, align 8
  br label %96

96:                                               ; preds = %84, %82
  %.164 = phi ptr [ %85, %84 ], [ %78, %82 ]
  call void @llvm.lifetime.end.p0(i64 648, ptr nonnull %6) #8
  ret ptr %.164
}